; ModuleID = 'source-C-CXX/22/1205.c'
source_filename = "source-C-CXX/22/1205.c"
target datalayout = "e-m:e-p270:32:32-p271:32:32-p272:64:64-i64:64-f80:128-n8:16:32:64-S128"
target triple = "x86_64-pc-linux-gnu"

; Function Attrs: nounwind sspstrong uwtable
define dso_local void @main() local_unnamed_addr #0 {
  %1 = alloca [100 x i8], align 16
  %2 = alloca [100 x i8], align 16
  %3 = alloca [100 x [100 x i8]], align 16
  %4 = getelementptr inbounds [100 x i8], [100 x i8]* %1, i64 0, i64 0
  call void @llvm.lifetime.start.p0i8(i64 100, i8* nonnull %4) #6
  call void @llvm.memset.p0i8.i64(i8* noundef nonnull align 16 dereferenceable(100) %4, i8 0, i64 100, i1 false)
  %5 = getelementptr inbounds [100 x i8], [100 x i8]* %2, i64 0, i64 0
  call void @llvm.lifetime.start.p0i8(i64 100, i8* nonnull %5) #6
  call void @llvm.memset.p0i8.i64(i8* noundef nonnull align 16 dereferenceable(100) %5, i8 0, i64 100, i1 false)
  %6 = getelementptr inbounds [100 x [100 x i8]], [100 x [100 x i8]]* %3, i64 0, i64 0, i64 0
  call void @llvm.lifetime.start.p0i8(i64 10000, i8* nonnull %6) #6
  call void @llvm.memset.p0i8.i64(i8* noundef nonnull align 16 dereferenceable(10000) %6, i8 0, i64 10000, i1 false)
  %7 = call i32 (i8*, ...) bitcast (i32 (...)* @gets to i32 (i8*, ...)*)(i8* nonnull %4) #6
  %8 = load i8, i8* %4, align 16, !tbaa !5
  %9 = icmp eq i8 %8, 0
  br i1 %9, label %50, label %10

10:                                               ; preds = %0, %34
  %11 = phi i64 [ %35, %34 ], [ 0, %0 ]
  %12 = phi i32 [ %36, %34 ], [ 0, %0 ]
  %13 = sext i32 %12 to i64
  br label %19

14:                                               ; preds = %34
  %15 = trunc i64 %35 to i32
  %16 = icmp sgt i32 %15, 0
  br i1 %16, label %17, label %50

17:                                               ; preds = %14
  %18 = and i64 %35, 4294967295
  br label %41

19:                                               ; preds = %10, %24
  %20 = phi i64 [ %13, %10 ], [ %27, %24 ]
  %21 = phi i64 [ 0, %10 ], [ %26, %24 ]
  %22 = getelementptr inbounds [100 x i8], [100 x i8]* %1, i64 0, i64 %20
  %23 = load i8, i8* %22, align 1, !tbaa !5
  switch i8 %23, label %24 [
    i8 0, label %28
    i8 32, label %28
  ]

24:                                               ; preds = %19
  %25 = getelementptr inbounds [100 x [100 x i8]], [100 x [100 x i8]]* %3, i64 0, i64 %11, i64 %21
  store i8 %23, i8* %25, align 1, !tbaa !5
  %26 = add nuw i64 %21, 1
  %27 = add i64 %20, 1
  br label %19, !llvm.loop !8

28:                                               ; preds = %19, %19
  %29 = trunc i64 %20 to i32
  %30 = icmp eq i64 %11, 0
  br i1 %30, label %34, label %31

31:                                               ; preds = %28
  %32 = and i64 %21, 4294967295
  %33 = getelementptr inbounds [100 x [100 x i8]], [100 x [100 x i8]]* %3, i64 0, i64 %11, i64 %32
  store i8 32, i8* %33, align 1, !tbaa !5
  br label %34

34:                                               ; preds = %31, %28
  %35 = add nuw i64 %11, 1
  %36 = add nsw i32 %29, 1
  %37 = sext i32 %36 to i64
  %38 = getelementptr inbounds [100 x i8], [100 x i8]* %1, i64 0, i64 %37
  %39 = load i8, i8* %38, align 1, !tbaa !5
  %40 = icmp eq i8 %39, 0
  br i1 %40, label %14, label %10, !llvm.loop !10

41:                                               ; preds = %17, %41
  %42 = phi i64 [ %18, %17 ], [ %49, %41 ]
  %43 = phi i32 [ %15, %17 ], [ %44, %41 ]
  %44 = add nsw i32 %43, -1
  %45 = zext i32 %44 to i64
  %46 = getelementptr inbounds [100 x [100 x i8]], [100 x [100 x i8]]* %3, i64 0, i64 %45, i64 0
  %47 = call i8* @strcat(i8* noundef nonnull %5, i8* noundef nonnull %46) #6
  %48 = icmp sgt i64 %42, 1
  %49 = add nsw i64 %42, -1
  br i1 %48, label %41, label %50, !llvm.loop !11

50:                                               ; preds = %41, %0, %14
  %51 = call i32 @puts(i8* nonnull %5)
  call void @llvm.lifetime.end.p0i8(i64 10000, i8* nonnull %6) #6
  call void @llvm.lifetime.end.p0i8(i64 100, i8* nonnull %5) #6
  call void @llvm.lifetime.end.p0i8(i64 100, i8* nonnull %4) #6
  ret void
}

; Function Attrs: argmemonly mustprogress nofree nosync nounwind willreturn
declare void @llvm.lifetime.start.p0i8(i64 immarg, i8* nocapture) #1

; Function Attrs: argmemonly mustprogress nofree nounwind willreturn writeonly
declare void @llvm.memset.p0i8.i64(i8* nocapture writeonly, i8, i64, i1 immarg) #2

declare i32 @gets(...) local_unnamed_addr #3

; Function Attrs: argmemonly mustprogress nofree nounwind willreturn
declare i8* @strcat(i8* noalias returned, i8* noalias nocapture readonly) local_unnamed_addr #4

; Function Attrs: argmemonly mustprogress nofree nosync nounwind willreturn
declare void @llvm.lifetime.end.p0i8(i64 immarg, i8* nocapture) #1

; Function Attrs: nofree nounwind
declare noundef i32 @puts(i8* nocapture noundef readonly) local_unnamed_addr #5


!llvm.module.flags = !{!0, !1, !2, !3}
!llvm.ident = !{!4}

!0 = !{i32 1, !"wchar_size", i32 4}
!1 = !{i32 7, !"PIC Level", i32 2}
!2 = !{i32 7, !"PIE Level", i32 2}
!3 = !{i32 7, !"uwtable", i32 1}
!4 = !{!"clang version 13.0.0"}
!5 = !{!6, !6, i64 0}
!6 = !{!"omnipotent char", !7, i64 0}
!7 = !{!"Simple C/C++ TBAA"}
!8 = distinct !{!8, !9}
!9 = !{!"llvm.loop.mustprogress"}
!10 = distinct !{!10, !9}
!11 = distinct !{!11, !9}
